; Function Attrs: nounwind uwtable
define internal void @mov_text_cancel_overrides_cb(ptr noundef %0, ptr noundef %1) #1 {
  %.not = icmp eq ptr %1, null
  br i1 %.not, label %5, label %3

3:                                                ; preds = %2
  %4 = load i8, ptr %1, align 1, !tbaa !58
  %.not9 = icmp eq i8 %4, 0
  br i1 %.not9, label %5, label %8

5:                                                ; preds = %3, %2
  %6 = getelementptr inbounds nuw i8, ptr %0, i64 24
  %7 = load ptr, ptr %6, align 8, !tbaa !89
  br label %12

8:                                                ; preds = %3
  %9 = getelementptr inbounds nuw i8, ptr %0, i64 16
  %10 = load ptr, ptr %9, align 8, !tbaa !39
  %11 = tail call ptr @ff_ass_style_get(ptr noundef %10, ptr noundef nonnull %1) #8
  br label %12

12:                                               ; preds = %8, %5
  %.0 = phi ptr [ %11, %8 ], [ %7, %5 ]
  tail call fastcc void @mov_text_ass_style_set(ptr noundef nonnull %0, ptr noundef %.0)
  ret void
}